
_forktest:     file format elf32-i386


Disassembly of section .text:

00000000 <printf>:

#define N  1000

void
printf(int fd, char *s, ...)
{
   0:	55                   	push   %ebp
   1:	89 e5                	mov    %esp,%ebp
   3:	83 ec 08             	sub    $0x8,%esp
  write(fd, s, strlen(s));
   6:	83 ec 0c             	sub    $0xc,%esp
   9:	ff 75 0c             	pushl  0xc(%ebp)
   c:	e8 97 01 00 00       	call   1a8 <strlen>
  11:	83 c4 10             	add    $0x10,%esp
  14:	83 ec 04             	sub    $0x4,%esp
  17:	50                   	push   %eax
  18:	ff 75 0c             	pushl  0xc(%ebp)
  1b:	ff 75 08             	pushl  0x8(%ebp)
  1e:	e8 ac 03 00 00       	call   3cf <write>
  23:	83 c4 10             	add    $0x10,%esp
}
  26:	90                   	nop
  27:	c9                   	leave  
  28:	c3                   	ret    

00000029 <forktest>:

void
forktest(void)
{
  29:	55                   	push   %ebp
  2a:	89 e5                	mov    %esp,%ebp
  2c:	83 ec 18             	sub    $0x18,%esp
  int n, pid;

  printf(1, "fork test\n");
  2f:	83 ec 08             	sub    $0x8,%esp
  32:	68 b0 04 00 00       	push   $0x4b0
  37:	6a 01                	push   $0x1
  39:	e8 c2 ff ff ff       	call   0 <printf>
  3e:	83 c4 10             	add    $0x10,%esp

  for(n=0; n<N; n++){
  41:	c7 45 f4 00 00 00 00 	movl   $0x0,-0xc(%ebp)
  48:	eb 1d                	jmp    67 <forktest+0x3e>
    pid = fork();
  4a:	e8 58 03 00 00       	call   3a7 <fork>
  4f:	89 45 f0             	mov    %eax,-0x10(%ebp)
    if(pid < 0)
  52:	83 7d f0 00          	cmpl   $0x0,-0x10(%ebp)
  56:	78 1a                	js     72 <forktest+0x49>
      break;
    if(pid == 0)
  58:	83 7d f0 00          	cmpl   $0x0,-0x10(%ebp)
  5c:	75 05                	jne    63 <forktest+0x3a>
      exit();
  5e:	e8 4c 03 00 00       	call   3af <exit>
{
  int n, pid;

  printf(1, "fork test\n");

  for(n=0; n<N; n++){
  63:	83 45 f4 01          	addl   $0x1,-0xc(%ebp)
  67:	81 7d f4 e7 03 00 00 	cmpl   $0x3e7,-0xc(%ebp)
  6e:	7e da                	jle    4a <forktest+0x21>
  70:	eb 01                	jmp    73 <forktest+0x4a>
    pid = fork();
    if(pid < 0)
      break;
  72:	90                   	nop
    if(pid == 0)
      exit();
  }
  
  if(n == N){
  73:	81 7d f4 e8 03 00 00 	cmpl   $0x3e8,-0xc(%ebp)
  7a:	75 40                	jne    bc <forktest+0x93>
    printf(1, "fork claimed to work N times!\n", N);
  7c:	83 ec 04             	sub    $0x4,%esp
  7f:	68 e8 03 00 00       	push   $0x3e8
  84:	68 bc 04 00 00       	push   $0x4bc
  89:	6a 01                	push   $0x1
  8b:	e8 70 ff ff ff       	call   0 <printf>
  90:	83 c4 10             	add    $0x10,%esp
    exit();
  93:	e8 17 03 00 00       	call   3af <exit>
  }
  
  for(; n > 0; n--){
    if(wait() < 0){
  98:	e8 1a 03 00 00       	call   3b7 <wait>
  9d:	85 c0                	test   %eax,%eax
  9f:	79 17                	jns    b8 <forktest+0x8f>
      printf(1, "wait stopped early\n");
  a1:	83 ec 08             	sub    $0x8,%esp
  a4:	68 db 04 00 00       	push   $0x4db
  a9:	6a 01                	push   $0x1
  ab:	e8 50 ff ff ff       	call   0 <printf>
  b0:	83 c4 10             	add    $0x10,%esp
      exit();
  b3:	e8 f7 02 00 00       	call   3af <exit>
  if(n == N){
    printf(1, "fork claimed to work N times!\n", N);
    exit();
  }
  
  for(; n > 0; n--){
  b8:	83 6d f4 01          	subl   $0x1,-0xc(%ebp)
  bc:	83 7d f4 00          	cmpl   $0x0,-0xc(%ebp)
  c0:	7f d6                	jg     98 <forktest+0x6f>
      printf(1, "wait stopped early\n");
      exit();
    }
  }
  
  if(wait() != -1){
  c2:	e8 f0 02 00 00       	call   3b7 <wait>
  c7:	83 f8 ff             	cmp    $0xffffffff,%eax
  ca:	74 17                	je     e3 <forktest+0xba>
    printf(1, "wait got too many\n");
  cc:	83 ec 08             	sub    $0x8,%esp
  cf:	68 ef 04 00 00       	push   $0x4ef
  d4:	6a 01                	push   $0x1
  d6:	e8 25 ff ff ff       	call   0 <printf>
  db:	83 c4 10             	add    $0x10,%esp
    exit();
  de:	e8 cc 02 00 00       	call   3af <exit>
  }
  
  printf(1, "fork test OK\n");
  e3:	83 ec 08             	sub    $0x8,%esp
  e6:	68 02 05 00 00       	push   $0x502
  eb:	6a 01                	push   $0x1
  ed:	e8 0e ff ff ff       	call   0 <printf>
  f2:	83 c4 10             	add    $0x10,%esp
}
  f5:	90                   	nop
  f6:	c9                   	leave  
  f7:	c3                   	ret    

000000f8 <main>:

int
main(void)
{
  f8:	8d 4c 24 04          	lea    0x4(%esp),%ecx
  fc:	83 e4 f0             	and    $0xfffffff0,%esp
  ff:	ff 71 fc             	pushl  -0x4(%ecx)
 102:	55                   	push   %ebp
 103:	89 e5                	mov    %esp,%ebp
 105:	51                   	push   %ecx
 106:	83 ec 04             	sub    $0x4,%esp
  forktest();
 109:	e8 1b ff ff ff       	call   29 <forktest>
  exit();
 10e:	e8 9c 02 00 00       	call   3af <exit>

00000113 <stosb>:
               "cc");
}

static inline void
stosb(void *addr, int data, int cnt)
{
 113:	55                   	push   %ebp
 114:	89 e5                	mov    %esp,%ebp
 116:	57                   	push   %edi
 117:	53                   	push   %ebx
  asm volatile("cld; rep stosb" :
 118:	8b 4d 08             	mov    0x8(%ebp),%ecx
 11b:	8b 55 10             	mov    0x10(%ebp),%edx
 11e:	8b 45 0c             	mov    0xc(%ebp),%eax
 121:	89 cb                	mov    %ecx,%ebx
 123:	89 df                	mov    %ebx,%edi
 125:	89 d1                	mov    %edx,%ecx
 127:	fc                   	cld    
 128:	f3 aa                	rep stos %al,%es:(%edi)
 12a:	89 ca                	mov    %ecx,%edx
 12c:	89 fb                	mov    %edi,%ebx
 12e:	89 5d 08             	mov    %ebx,0x8(%ebp)
 131:	89 55 10             	mov    %edx,0x10(%ebp)
               "=D" (addr), "=c" (cnt) :
               "0" (addr), "1" (cnt), "a" (data) :
               "memory", "cc");
}
 134:	90                   	nop
 135:	5b                   	pop    %ebx
 136:	5f                   	pop    %edi
 137:	5d                   	pop    %ebp
 138:	c3                   	ret    

00000139 <strcpy>:
#include "user.h"
#include "x86.h"

char*
strcpy(char *s, char *t)
{
 139:	55                   	push   %ebp
 13a:	89 e5                	mov    %esp,%ebp
 13c:	83 ec 10             	sub    $0x10,%esp
  char *os;

  os = s;
 13f:	8b 45 08             	mov    0x8(%ebp),%eax
 142:	89 45 fc             	mov    %eax,-0x4(%ebp)
  while((*s++ = *t++) != 0)
 145:	90                   	nop
 146:	8b 45 08             	mov    0x8(%ebp),%eax
 149:	8d 50 01             	lea    0x1(%eax),%edx
 14c:	89 55 08             	mov    %edx,0x8(%ebp)
 14f:	8b 55 0c             	mov    0xc(%ebp),%edx
 152:	8d 4a 01             	lea    0x1(%edx),%ecx
 155:	89 4d 0c             	mov    %ecx,0xc(%ebp)
 158:	0f b6 12             	movzbl (%edx),%edx
 15b:	88 10                	mov    %dl,(%eax)
 15d:	0f b6 00             	movzbl (%eax),%eax
 160:	84 c0                	test   %al,%al
 162:	75 e2                	jne    146 <strcpy+0xd>
    ;
  return os;
 164:	8b 45 fc             	mov    -0x4(%ebp),%eax
}
 167:	c9                   	leave  
 168:	c3                   	ret    

00000169 <strcmp>:

int
strcmp(const char *p, const char *q)
{
 169:	55                   	push   %ebp
 16a:	89 e5                	mov    %esp,%ebp
  while(*p && *p == *q)
 16c:	eb 08                	jmp    176 <strcmp+0xd>
    p++, q++;
 16e:	83 45 08 01          	addl   $0x1,0x8(%ebp)
 172:	83 45 0c 01          	addl   $0x1,0xc(%ebp)
}

int
strcmp(const char *p, const char *q)
{
  while(*p && *p == *q)
 176:	8b 45 08             	mov    0x8(%ebp),%eax
 179:	0f b6 00             	movzbl (%eax),%eax
 17c:	84 c0                	test   %al,%al
 17e:	74 10                	je     190 <strcmp+0x27>
 180:	8b 45 08             	mov    0x8(%ebp),%eax
 183:	0f b6 10             	movzbl (%eax),%edx
 186:	8b 45 0c             	mov    0xc(%ebp),%eax
 189:	0f b6 00             	movzbl (%eax),%eax
 18c:	38 c2                	cmp    %al,%dl
 18e:	74 de                	je     16e <strcmp+0x5>
    p++, q++;
  return (uchar)*p - (uchar)*q;
 190:	8b 45 08             	mov    0x8(%ebp),%eax
 193:	0f b6 00             	movzbl (%eax),%eax
 196:	0f b6 d0             	movzbl %al,%edx
 199:	8b 45 0c             	mov    0xc(%ebp),%eax
 19c:	0f b6 00             	movzbl (%eax),%eax
 19f:	0f b6 c0             	movzbl %al,%eax
 1a2:	29 c2                	sub    %eax,%edx
 1a4:	89 d0                	mov    %edx,%eax
}
 1a6:	5d                   	pop    %ebp
 1a7:	c3                   	ret    

000001a8 <strlen>:

uint
strlen(char *s)
{
 1a8:	55                   	push   %ebp
 1a9:	89 e5                	mov    %esp,%ebp
 1ab:	83 ec 10             	sub    $0x10,%esp
  int n;

  for(n = 0; s[n]; n++)
 1ae:	c7 45 fc 00 00 00 00 	movl   $0x0,-0x4(%ebp)
 1b5:	eb 04                	jmp    1bb <strlen+0x13>
 1b7:	83 45 fc 01          	addl   $0x1,-0x4(%ebp)
 1bb:	8b 55 fc             	mov    -0x4(%ebp),%edx
 1be:	8b 45 08             	mov    0x8(%ebp),%eax
 1c1:	01 d0                	add    %edx,%eax
 1c3:	0f b6 00             	movzbl (%eax),%eax
 1c6:	84 c0                	test   %al,%al
 1c8:	75 ed                	jne    1b7 <strlen+0xf>
    ;
  return n;
 1ca:	8b 45 fc             	mov    -0x4(%ebp),%eax
}
 1cd:	c9                   	leave  
 1ce:	c3                   	ret    

000001cf <memset>:

void*
memset(void *dst, int c, uint n)
{
 1cf:	55                   	push   %ebp
 1d0:	89 e5                	mov    %esp,%ebp
  stosb(dst, c, n);
 1d2:	8b 45 10             	mov    0x10(%ebp),%eax
 1d5:	50                   	push   %eax
 1d6:	ff 75 0c             	pushl  0xc(%ebp)
 1d9:	ff 75 08             	pushl  0x8(%ebp)
 1dc:	e8 32 ff ff ff       	call   113 <stosb>
 1e1:	83 c4 0c             	add    $0xc,%esp
  return dst;
 1e4:	8b 45 08             	mov    0x8(%ebp),%eax
}
 1e7:	c9                   	leave  
 1e8:	c3                   	ret    

000001e9 <strchr>:

char*
strchr(const char *s, char c)
{
 1e9:	55                   	push   %ebp
 1ea:	89 e5                	mov    %esp,%ebp
 1ec:	83 ec 04             	sub    $0x4,%esp
 1ef:	8b 45 0c             	mov    0xc(%ebp),%eax
 1f2:	88 45 fc             	mov    %al,-0x4(%ebp)
  for(; *s; s++)
 1f5:	eb 14                	jmp    20b <strchr+0x22>
    if(*s == c)
 1f7:	8b 45 08             	mov    0x8(%ebp),%eax
 1fa:	0f b6 00             	movzbl (%eax),%eax
 1fd:	3a 45 fc             	cmp    -0x4(%ebp),%al
 200:	75 05                	jne    207 <strchr+0x1e>
      return (char*)s;
 202:	8b 45 08             	mov    0x8(%ebp),%eax
 205:	eb 13                	jmp    21a <strchr+0x31>
}

char*
strchr(const char *s, char c)
{
  for(; *s; s++)
 207:	83 45 08 01          	addl   $0x1,0x8(%ebp)
 20b:	8b 45 08             	mov    0x8(%ebp),%eax
 20e:	0f b6 00             	movzbl (%eax),%eax
 211:	84 c0                	test   %al,%al
 213:	75 e2                	jne    1f7 <strchr+0xe>
    if(*s == c)
      return (char*)s;
  return 0;
 215:	b8 00 00 00 00       	mov    $0x0,%eax
}
 21a:	c9                   	leave  
 21b:	c3                   	ret    

0000021c <gets>:

char*
gets(char *buf, int max)
{
 21c:	55                   	push   %ebp
 21d:	89 e5                	mov    %esp,%ebp
 21f:	83 ec 18             	sub    $0x18,%esp
  int i, cc;
  char c;

  for(i=0; i+1 < max; ){
 222:	c7 45 f4 00 00 00 00 	movl   $0x0,-0xc(%ebp)
 229:	eb 42                	jmp    26d <gets+0x51>
    cc = read(0, &c, 1);
 22b:	83 ec 04             	sub    $0x4,%esp
 22e:	6a 01                	push   $0x1
 230:	8d 45 ef             	lea    -0x11(%ebp),%eax
 233:	50                   	push   %eax
 234:	6a 00                	push   $0x0
 236:	e8 8c 01 00 00       	call   3c7 <read>
 23b:	83 c4 10             	add    $0x10,%esp
 23e:	89 45 f0             	mov    %eax,-0x10(%ebp)
    if(cc < 1)
 241:	83 7d f0 00          	cmpl   $0x0,-0x10(%ebp)
 245:	7e 33                	jle    27a <gets+0x5e>
      break;
    buf[i++] = c;
 247:	8b 45 f4             	mov    -0xc(%ebp),%eax
 24a:	8d 50 01             	lea    0x1(%eax),%edx
 24d:	89 55 f4             	mov    %edx,-0xc(%ebp)
 250:	89 c2                	mov    %eax,%edx
 252:	8b 45 08             	mov    0x8(%ebp),%eax
 255:	01 c2                	add    %eax,%edx
 257:	0f b6 45 ef          	movzbl -0x11(%ebp),%eax
 25b:	88 02                	mov    %al,(%edx)
    if(c == '\n' || c == '\r')
 25d:	0f b6 45 ef          	movzbl -0x11(%ebp),%eax
 261:	3c 0a                	cmp    $0xa,%al
 263:	74 16                	je     27b <gets+0x5f>
 265:	0f b6 45 ef          	movzbl -0x11(%ebp),%eax
 269:	3c 0d                	cmp    $0xd,%al
 26b:	74 0e                	je     27b <gets+0x5f>
gets(char *buf, int max)
{
  int i, cc;
  char c;

  for(i=0; i+1 < max; ){
 26d:	8b 45 f4             	mov    -0xc(%ebp),%eax
 270:	83 c0 01             	add    $0x1,%eax
 273:	3b 45 0c             	cmp    0xc(%ebp),%eax
 276:	7c b3                	jl     22b <gets+0xf>
 278:	eb 01                	jmp    27b <gets+0x5f>
    cc = read(0, &c, 1);
    if(cc < 1)
      break;
 27a:	90                   	nop
    buf[i++] = c;
    if(c == '\n' || c == '\r')
      break;
  }
  buf[i] = '\0';
 27b:	8b 55 f4             	mov    -0xc(%ebp),%edx
 27e:	8b 45 08             	mov    0x8(%ebp),%eax
 281:	01 d0                	add    %edx,%eax
 283:	c6 00 00             	movb   $0x0,(%eax)
  return buf;
 286:	8b 45 08             	mov    0x8(%ebp),%eax
}
 289:	c9                   	leave  
 28a:	c3                   	ret    

0000028b <stat>:

int
stat(char *n, struct stat *st)
{
 28b:	55                   	push   %ebp
 28c:	89 e5                	mov    %esp,%ebp
 28e:	83 ec 18             	sub    $0x18,%esp
  int fd;
  int r;

  fd = open(n, O_RDONLY);
 291:	83 ec 08             	sub    $0x8,%esp
 294:	6a 00                	push   $0x0
 296:	ff 75 08             	pushl  0x8(%ebp)
 299:	e8 51 01 00 00       	call   3ef <open>
 29e:	83 c4 10             	add    $0x10,%esp
 2a1:	89 45 f4             	mov    %eax,-0xc(%ebp)
  if(fd < 0)
 2a4:	83 7d f4 00          	cmpl   $0x0,-0xc(%ebp)
 2a8:	79 07                	jns    2b1 <stat+0x26>
    return -1;
 2aa:	b8 ff ff ff ff       	mov    $0xffffffff,%eax
 2af:	eb 25                	jmp    2d6 <stat+0x4b>
  r = fstat(fd, st);
 2b1:	83 ec 08             	sub    $0x8,%esp
 2b4:	ff 75 0c             	pushl  0xc(%ebp)
 2b7:	ff 75 f4             	pushl  -0xc(%ebp)
 2ba:	e8 48 01 00 00       	call   407 <fstat>
 2bf:	83 c4 10             	add    $0x10,%esp
 2c2:	89 45 f0             	mov    %eax,-0x10(%ebp)
  close(fd);
 2c5:	83 ec 0c             	sub    $0xc,%esp
 2c8:	ff 75 f4             	pushl  -0xc(%ebp)
 2cb:	e8 07 01 00 00       	call   3d7 <close>
 2d0:	83 c4 10             	add    $0x10,%esp
  return r;
 2d3:	8b 45 f0             	mov    -0x10(%ebp),%eax
}
 2d6:	c9                   	leave  
 2d7:	c3                   	ret    

000002d8 <atoi>:

int
atoi(const char *s)
{
 2d8:	55                   	push   %ebp
 2d9:	89 e5                	mov    %esp,%ebp
 2db:	83 ec 10             	sub    $0x10,%esp
  int n, sign;

  n = 0;
 2de:	c7 45 fc 00 00 00 00 	movl   $0x0,-0x4(%ebp)
  while (*s == ' ') s++;
 2e5:	eb 04                	jmp    2eb <atoi+0x13>
 2e7:	83 45 08 01          	addl   $0x1,0x8(%ebp)
 2eb:	8b 45 08             	mov    0x8(%ebp),%eax
 2ee:	0f b6 00             	movzbl (%eax),%eax
 2f1:	3c 20                	cmp    $0x20,%al
 2f3:	74 f2                	je     2e7 <atoi+0xf>
  sign = (*s == '-') ? -1 : 1;
 2f5:	8b 45 08             	mov    0x8(%ebp),%eax
 2f8:	0f b6 00             	movzbl (%eax),%eax
 2fb:	3c 2d                	cmp    $0x2d,%al
 2fd:	75 07                	jne    306 <atoi+0x2e>
 2ff:	b8 ff ff ff ff       	mov    $0xffffffff,%eax
 304:	eb 05                	jmp    30b <atoi+0x33>
 306:	b8 01 00 00 00       	mov    $0x1,%eax
 30b:	89 45 f8             	mov    %eax,-0x8(%ebp)
  if (*s == '+'  || *s == '-')
 30e:	8b 45 08             	mov    0x8(%ebp),%eax
 311:	0f b6 00             	movzbl (%eax),%eax
 314:	3c 2b                	cmp    $0x2b,%al
 316:	74 0a                	je     322 <atoi+0x4a>
 318:	8b 45 08             	mov    0x8(%ebp),%eax
 31b:	0f b6 00             	movzbl (%eax),%eax
 31e:	3c 2d                	cmp    $0x2d,%al
 320:	75 2b                	jne    34d <atoi+0x75>
    s++;
 322:	83 45 08 01          	addl   $0x1,0x8(%ebp)
  while('0' <= *s && *s <= '9')
 326:	eb 25                	jmp    34d <atoi+0x75>
    n = n*10 + *s++ - '0';
 328:	8b 55 fc             	mov    -0x4(%ebp),%edx
 32b:	89 d0                	mov    %edx,%eax
 32d:	c1 e0 02             	shl    $0x2,%eax
 330:	01 d0                	add    %edx,%eax
 332:	01 c0                	add    %eax,%eax
 334:	89 c1                	mov    %eax,%ecx
 336:	8b 45 08             	mov    0x8(%ebp),%eax
 339:	8d 50 01             	lea    0x1(%eax),%edx
 33c:	89 55 08             	mov    %edx,0x8(%ebp)
 33f:	0f b6 00             	movzbl (%eax),%eax
 342:	0f be c0             	movsbl %al,%eax
 345:	01 c8                	add    %ecx,%eax
 347:	83 e8 30             	sub    $0x30,%eax
 34a:	89 45 fc             	mov    %eax,-0x4(%ebp)
  n = 0;
  while (*s == ' ') s++;
  sign = (*s == '-') ? -1 : 1;
  if (*s == '+'  || *s == '-')
    s++;
  while('0' <= *s && *s <= '9')
 34d:	8b 45 08             	mov    0x8(%ebp),%eax
 350:	0f b6 00             	movzbl (%eax),%eax
 353:	3c 2f                	cmp    $0x2f,%al
 355:	7e 0a                	jle    361 <atoi+0x89>
 357:	8b 45 08             	mov    0x8(%ebp),%eax
 35a:	0f b6 00             	movzbl (%eax),%eax
 35d:	3c 39                	cmp    $0x39,%al
 35f:	7e c7                	jle    328 <atoi+0x50>
    n = n*10 + *s++ - '0';
  return sign*n;
 361:	8b 45 f8             	mov    -0x8(%ebp),%eax
 364:	0f af 45 fc          	imul   -0x4(%ebp),%eax
}
 368:	c9                   	leave  
 369:	c3                   	ret    

0000036a <memmove>:

void*
memmove(void *vdst, void *vsrc, int n)
{
 36a:	55                   	push   %ebp
 36b:	89 e5                	mov    %esp,%ebp
 36d:	83 ec 10             	sub    $0x10,%esp
  char *dst, *src;
  
  dst = vdst;
 370:	8b 45 08             	mov    0x8(%ebp),%eax
 373:	89 45 fc             	mov    %eax,-0x4(%ebp)
  src = vsrc;
 376:	8b 45 0c             	mov    0xc(%ebp),%eax
 379:	89 45 f8             	mov    %eax,-0x8(%ebp)
  while(n-- > 0)
 37c:	eb 17                	jmp    395 <memmove+0x2b>
    *dst++ = *src++;
 37e:	8b 45 fc             	mov    -0x4(%ebp),%eax
 381:	8d 50 01             	lea    0x1(%eax),%edx
 384:	89 55 fc             	mov    %edx,-0x4(%ebp)
 387:	8b 55 f8             	mov    -0x8(%ebp),%edx
 38a:	8d 4a 01             	lea    0x1(%edx),%ecx
 38d:	89 4d f8             	mov    %ecx,-0x8(%ebp)
 390:	0f b6 12             	movzbl (%edx),%edx
 393:	88 10                	mov    %dl,(%eax)
{
  char *dst, *src;
  
  dst = vdst;
  src = vsrc;
  while(n-- > 0)
 395:	8b 45 10             	mov    0x10(%ebp),%eax
 398:	8d 50 ff             	lea    -0x1(%eax),%edx
 39b:	89 55 10             	mov    %edx,0x10(%ebp)
 39e:	85 c0                	test   %eax,%eax
 3a0:	7f dc                	jg     37e <memmove+0x14>
    *dst++ = *src++;
  return vdst;
 3a2:	8b 45 08             	mov    0x8(%ebp),%eax
}
 3a5:	c9                   	leave  
 3a6:	c3                   	ret    

000003a7 <fork>:
  name: \
    movl $SYS_ ## name, %eax; \
    int $T_SYSCALL; \
    ret

SYSCALL(fork)
 3a7:	b8 01 00 00 00       	mov    $0x1,%eax
 3ac:	cd 40                	int    $0x40
 3ae:	c3                   	ret    

000003af <exit>:
SYSCALL(exit)
 3af:	b8 02 00 00 00       	mov    $0x2,%eax
 3b4:	cd 40                	int    $0x40
 3b6:	c3                   	ret    

000003b7 <wait>:
SYSCALL(wait)
 3b7:	b8 03 00 00 00       	mov    $0x3,%eax
 3bc:	cd 40                	int    $0x40
 3be:	c3                   	ret    

000003bf <pipe>:
SYSCALL(pipe)
 3bf:	b8 04 00 00 00       	mov    $0x4,%eax
 3c4:	cd 40                	int    $0x40
 3c6:	c3                   	ret    

000003c7 <read>:
SYSCALL(read)
 3c7:	b8 05 00 00 00       	mov    $0x5,%eax
 3cc:	cd 40                	int    $0x40
 3ce:	c3                   	ret    

000003cf <write>:
SYSCALL(write)
 3cf:	b8 10 00 00 00       	mov    $0x10,%eax
 3d4:	cd 40                	int    $0x40
 3d6:	c3                   	ret    

000003d7 <close>:
SYSCALL(close)
 3d7:	b8 15 00 00 00       	mov    $0x15,%eax
 3dc:	cd 40                	int    $0x40
 3de:	c3                   	ret    

000003df <kill>:
SYSCALL(kill)
 3df:	b8 06 00 00 00       	mov    $0x6,%eax
 3e4:	cd 40                	int    $0x40
 3e6:	c3                   	ret    

000003e7 <exec>:
SYSCALL(exec)
 3e7:	b8 07 00 00 00       	mov    $0x7,%eax
 3ec:	cd 40                	int    $0x40
 3ee:	c3                   	ret    

000003ef <open>:
SYSCALL(open)
 3ef:	b8 0f 00 00 00       	mov    $0xf,%eax
 3f4:	cd 40                	int    $0x40
 3f6:	c3                   	ret    

000003f7 <mknod>:
SYSCALL(mknod)
 3f7:	b8 11 00 00 00       	mov    $0x11,%eax
 3fc:	cd 40                	int    $0x40
 3fe:	c3                   	ret    

000003ff <unlink>:
SYSCALL(unlink)
 3ff:	b8 12 00 00 00       	mov    $0x12,%eax
 404:	cd 40                	int    $0x40
 406:	c3                   	ret    

00000407 <fstat>:
SYSCALL(fstat)
 407:	b8 08 00 00 00       	mov    $0x8,%eax
 40c:	cd 40                	int    $0x40
 40e:	c3                   	ret    

0000040f <link>:
SYSCALL(link)
 40f:	b8 13 00 00 00       	mov    $0x13,%eax
 414:	cd 40                	int    $0x40
 416:	c3                   	ret    

00000417 <mkdir>:
SYSCALL(mkdir)
 417:	b8 14 00 00 00       	mov    $0x14,%eax
 41c:	cd 40                	int    $0x40
 41e:	c3                   	ret    

0000041f <chdir>:
SYSCALL(chdir)
 41f:	b8 09 00 00 00       	mov    $0x9,%eax
 424:	cd 40                	int    $0x40
 426:	c3                   	ret    

00000427 <dup>:
SYSCALL(dup)
 427:	b8 0a 00 00 00       	mov    $0xa,%eax
 42c:	cd 40                	int    $0x40
 42e:	c3                   	ret    

0000042f <getpid>:
SYSCALL(getpid)
 42f:	b8 0b 00 00 00       	mov    $0xb,%eax
 434:	cd 40                	int    $0x40
 436:	c3                   	ret    

00000437 <sbrk>:
SYSCALL(sbrk)
 437:	b8 0c 00 00 00       	mov    $0xc,%eax
 43c:	cd 40                	int    $0x40
 43e:	c3                   	ret    

0000043f <sleep>:
SYSCALL(sleep)
 43f:	b8 0d 00 00 00       	mov    $0xd,%eax
 444:	cd 40                	int    $0x40
 446:	c3                   	ret    

00000447 <uptime>:
SYSCALL(uptime)
 447:	b8 0e 00 00 00       	mov    $0xe,%eax
 44c:	cd 40                	int    $0x40
 44e:	c3                   	ret    

0000044f <halt>:
SYSCALL(halt)
 44f:	b8 16 00 00 00       	mov    $0x16,%eax
 454:	cd 40                	int    $0x40
 456:	c3                   	ret    

00000457 <date>:
SYSCALL(date)
 457:	b8 17 00 00 00       	mov    $0x17,%eax
 45c:	cd 40                	int    $0x40
 45e:	c3                   	ret    

0000045f <getuid>:
SYSCALL(getuid)
 45f:	b8 18 00 00 00       	mov    $0x18,%eax
 464:	cd 40                	int    $0x40
 466:	c3                   	ret    

00000467 <getgid>:
SYSCALL(getgid)
 467:	b8 19 00 00 00       	mov    $0x19,%eax
 46c:	cd 40                	int    $0x40
 46e:	c3                   	ret    

0000046f <getppid>:
SYSCALL(getppid)
 46f:	b8 1a 00 00 00       	mov    $0x1a,%eax
 474:	cd 40                	int    $0x40
 476:	c3                   	ret    

00000477 <setuid>:
SYSCALL(setuid)
 477:	b8 1b 00 00 00       	mov    $0x1b,%eax
 47c:	cd 40                	int    $0x40
 47e:	c3                   	ret    

0000047f <setgid>:
SYSCALL(setgid)
 47f:	b8 1c 00 00 00       	mov    $0x1c,%eax
 484:	cd 40                	int    $0x40
 486:	c3                   	ret    

00000487 <getprocs>:
SYSCALL(getprocs)
 487:	b8 1d 00 00 00       	mov    $0x1d,%eax
 48c:	cd 40                	int    $0x40
 48e:	c3                   	ret    

0000048f <setpriority>:
SYSCALL(setpriority)
 48f:	b8 1e 00 00 00       	mov    $0x1e,%eax
 494:	cd 40                	int    $0x40
 496:	c3                   	ret    

00000497 <chmod>:
SYSCALL(chmod)
 497:	b8 1f 00 00 00       	mov    $0x1f,%eax
 49c:	cd 40                	int    $0x40
 49e:	c3                   	ret    

0000049f <chown>:
SYSCALL(chown)
 49f:	b8 20 00 00 00       	mov    $0x20,%eax
 4a4:	cd 40                	int    $0x40
 4a6:	c3                   	ret    

000004a7 <chgrp>:
SYSCALL(chgrp)
 4a7:	b8 21 00 00 00       	mov    $0x21,%eax
 4ac:	cd 40                	int    $0x40
 4ae:	c3                   	ret    
